target datalayout = "e-m:e-p270:32:32-p271:32:32-p272:64:64-i64:64-i128:128-f80:128-n8:16:32:64-S128"
target triple = "x86_64-pc-linux-gnu"

%struct.MAD_Data = type { i8, i8, i8, i8, i16, i64, i16, i32, [232 x i8] }

@hf_infiniband_smp_data = internal global i32 0, align 4
@.str.1230 = private unnamed_addr constant [3 x i8] c"%s\00", align 1
@.str.1573 = private unnamed_addr constant [54 x i8] c"SNMP - SNMP Tunneling MAD (Dissector Not Implemented)\00", align 1

; Function Attrs: null_pointer_is_valid sspstrong uwtable
define internal void @parse_SNMP(ptr noundef %0, ptr noundef %1, ptr noundef %2) #0 {
  %4 = alloca ptr, align 8
  %5 = alloca ptr, align 8
  %6 = alloca ptr, align 8
  %7 = alloca %struct.MAD_Data, align 8
  %8 = alloca i32, align 4
  %9 = alloca ptr, align 8
  %10 = alloca i32, align 4
  store ptr %0, ptr %4, align 8
  store ptr %1, ptr %5, align 8
  store ptr %2, ptr %6, align 8
  call void @llvm.lifetime.start.p0(i64 256, ptr %7) #18
  call void @llvm.lifetime.start.p0(i64 4, ptr %8) #18
  call void @llvm.lifetime.start.p0(i64 8, ptr %9) #18
  %11 = load ptr, ptr %4, align 8
  %12 = load ptr, ptr %5, align 8
  %13 = load ptr, ptr %6, align 8
  %14 = call zeroext i1 @parse_MAD_Common(ptr noundef %11, ptr noundef %12, ptr noundef %13, ptr noundef %7)
  br i1 %14, label %16, label %15

15:                                               ; preds = %3
  store i32 1, ptr %10, align 4
  br label %29

16:                                               ; preds = %3
  %17 = load ptr, ptr %6, align 8
  %18 = load i32, ptr %17, align 4
  store i32 %18, ptr %8, align 4
  %19 = load ptr, ptr %4, align 8
  %20 = load i32, ptr @hf_infiniband_smp_data, align 4
  %21 = load ptr, ptr %5, align 8
  %22 = load i32, ptr %8, align 4
  %23 = call ptr @proto_tree_add_item(ptr noundef %19, i32 noundef %20, ptr noundef %21, i32 noundef %22, i32 noundef 232, i32 noundef 0)
  store ptr %23, ptr %9, align 8
  %24 = load i32, ptr %8, align 4
  %25 = add i32 %24, 232
  store i32 %25, ptr %8, align 4
  %26 = load ptr, ptr %9, align 8
  call void (ptr, ptr, ...) @proto_item_set_text(ptr noundef %26, ptr noundef @.str.1230, ptr noundef @.str.1573)
  %27 = load i32, ptr %8, align 4
  %28 = load ptr, ptr %6, align 8
  store i32 %27, ptr %28, align 4
  store i32 0, ptr %10, align 4
  br label %29

29:                                               ; preds = %16, %15
  call void @llvm.lifetime.end.p0(i64 8, ptr %9) #18
  call void @llvm.lifetime.end.p0(i64 4, ptr %8) #18
  call void @llvm.lifetime.end.p0(i64 256, ptr %7) #18
  %30 = load i32, ptr %10, align 4
  switch i32 %30, label %32 [
    i32 0, label %31
    i32 1, label %31
  ]

31:                                               ; preds = %29, %29
  ret void

32:                                               ; preds = %29
  unreachable
}