; Function Attrs: null_pointer_is_valid sspstrong uwtable
define internal fastcc void @parse_SNMP(ptr noundef %0, ptr noundef %1, ptr noundef captures(none) %2) unnamed_addr #0 {
  %4 = alloca %struct.MAD_Data, align 8
  call void @llvm.lifetime.start.p0(i64 256, ptr nonnull %4) #14
  %5 = call fastcc zeroext i1 @parse_MAD_Common(ptr noundef %0, ptr noundef %1, ptr noundef %2, ptr noundef nonnull %4)
  br i1 %5, label %6, label %11

6:                                                ; preds = %3
  %7 = load i32, ptr %2, align 4
  %8 = load i32, ptr @hf_infiniband_smp_data, align 4
  %9 = call ptr @proto_tree_add_item(ptr noundef %0, i32 noundef %8, ptr noundef %1, i32 noundef %7, i32 noundef 232, i32 noundef 0)
  %10 = add i32 %7, 232
  call void (ptr, ptr, ...) @proto_item_set_text(ptr noundef %9, ptr noundef nonnull @.str.1230, ptr noundef nonnull @.str.1573)
  store i32 %10, ptr %2, align 4
  br label %11

11:                                               ; preds = %3, %6
  call void @llvm.lifetime.end.p0(i64 256, ptr nonnull %4) #14
  ret void
}